target datalayout = "e-m:e-p270:32:32-p271:32:32-p272:64:64-i64:64-i128:128-f80:128-n8:16:32:64-S128"
target triple = "x86_64-pc-linux-gnu"

%struct.store_engine = type { %union.pthread_mutex_t, ptr, ptr, ptr, ptr, ptr, ptr, ptr, i64, i32, i32, i32, i32, i32, i32, i32, i32, %union.pthread_mutex_t, %struct.extstore_stats, %struct.store_maint }
%union.pthread_mutex_t = type { %struct.__pthread_mutex_s }
%struct.__pthread_mutex_s = type { i32, i32, i32, i32, i32, i16, i16, %struct.__pthread_internal_list }
%struct.__pthread_internal_list = type { ptr, ptr }
%struct.extstore_stats = type { i64, i64, i64, i64, i64, i64, i64, i64, i64, i64, i64, i64, i64, i64, i64, i64, i64, ptr }
%struct.store_maint = type { %union.pthread_mutex_t }
%struct._store_page = type { %union.pthread_mutex_t, i64, i64, i64, i32, i32, i32, i32, i32, i32, i32, i16, i8, i8, i8, ptr, ptr }
%struct.__store_wbuf = type { ptr, ptr, ptr, i32, i32, i32, i8, i8 }
%struct._obj_io = type { ptr, ptr, ptr, ptr, i32, i32, i32, i32, i16, i32, ptr }

; Function Attrs: nounwind uwtable
define internal void @_wbuf_cb(ptr noundef %0, ptr noundef %1, i32 noundef %2) #0 {
  %4 = alloca ptr, align 8
  %5 = alloca ptr, align 8
  %6 = alloca i32, align 4
  %7 = alloca ptr, align 8
  %8 = alloca ptr, align 8
  %9 = alloca ptr, align 8
  store ptr %0, ptr %4, align 8, !tbaa !4
  store ptr %1, ptr %5, align 8, !tbaa !108
  store i32 %2, ptr %6, align 4, !tbaa !27
  call void @llvm.lifetime.start.p0(i64 8, ptr %7) #8
  %10 = load ptr, ptr %4, align 8, !tbaa !4
  store ptr %10, ptr %7, align 8, !tbaa !10
  call void @llvm.lifetime.start.p0(i64 8, ptr %8) #8
  %11 = load ptr, ptr %7, align 8, !tbaa !10
  %12 = getelementptr inbounds nuw %struct.store_engine, ptr %11, i32 0, i32 1
  %13 = load ptr, ptr %12, align 8, !tbaa !39
  %14 = load ptr, ptr %5, align 8, !tbaa !108
  %15 = getelementptr inbounds nuw %struct._obj_io, ptr %14, i32 0, i32 8
  %16 = load i16, ptr %15, align 8, !tbaa !130
  %17 = zext i16 %16 to i64
  %18 = getelementptr inbounds nuw %struct._store_page, ptr %13, i64 %17
  store ptr %18, ptr %8, align 8, !tbaa !40
  call void @llvm.lifetime.start.p0(i64 8, ptr %9) #8
  %19 = load ptr, ptr %5, align 8, !tbaa !108
  %20 = getelementptr inbounds nuw %struct._obj_io, ptr %19, i32 0, i32 0
  %21 = load ptr, ptr %20, align 8, !tbaa !146
  store ptr %21, ptr %9, align 8, !tbaa !107
  %22 = load ptr, ptr %9, align 8, !tbaa !107
  %23 = getelementptr inbounds nuw %struct.__store_wbuf, ptr %22, i32 0, i32 7
  store i8 1, ptr %23, align 1, !tbaa !148
  %24 = load ptr, ptr %8, align 8, !tbaa !40
  %25 = getelementptr inbounds nuw %struct._store_page, ptr %24, i32 0, i32 0
  %26 = call i32 @pthread_mutex_lock(ptr noundef %25) #8
  %27 = load ptr, ptr %9, align 8, !tbaa !107
  %28 = getelementptr inbounds nuw %struct.__store_wbuf, ptr %27, i32 0, i32 4
  %29 = load i32, ptr %28, align 4, !tbaa !126
  %30 = load ptr, ptr %8, align 8, !tbaa !40
  %31 = getelementptr inbounds nuw %struct._store_page, ptr %30, i32 0, i32 7
  %32 = load i32, ptr %31, align 4, !tbaa !70
  %33 = add i32 %32, %29
  store i32 %33, ptr %31, align 4, !tbaa !70
  %34 = load ptr, ptr %8, align 8, !tbaa !40
  %35 = getelementptr inbounds nuw %struct._store_page, ptr %34, i32 0, i32 15
  store ptr null, ptr %35, align 8, !tbaa !142
  %36 = load ptr, ptr %8, align 8, !tbaa !40
  %37 = getelementptr inbounds nuw %struct._store_page, ptr %36, i32 0, i32 7
  %38 = load i32, ptr %37, align 4, !tbaa !70
  %39 = zext i32 %38 to i64
  %40 = load ptr, ptr %7, align 8, !tbaa !10
  %41 = getelementptr inbounds nuw %struct.store_engine, ptr %40, i32 0, i32 8
  %42 = load i64, ptr %41, align 8, !tbaa !34
  %43 = icmp eq i64 %39, %42
  br i1 %43, label %44, label %47

44:                                               ; preds = %3
  %45 = load ptr, ptr %8, align 8, !tbaa !40
  %46 = getelementptr inbounds nuw %struct._store_page, ptr %45, i32 0, i32 12
  store i8 0, ptr %46, align 2, !tbaa !52
  br label %47

47:                                               ; preds = %44, %3
  %48 = load ptr, ptr %7, align 8, !tbaa !10
  %49 = getelementptr inbounds nuw %struct.store_engine, ptr %48, i32 0, i32 0
  %50 = call i32 @pthread_mutex_lock(ptr noundef %49) #8
  %51 = load ptr, ptr %7, align 8, !tbaa !10
  %52 = getelementptr inbounds nuw %struct.store_engine, ptr %51, i32 0, i32 2
  %53 = load ptr, ptr %52, align 8, !tbaa !109
  %54 = load ptr, ptr %9, align 8, !tbaa !107
  %55 = getelementptr inbounds nuw %struct.__store_wbuf, ptr %54, i32 0, i32 0
  store ptr %53, ptr %55, align 8, !tbaa !110
  %56 = load ptr, ptr %9, align 8, !tbaa !107
  %57 = load ptr, ptr %7, align 8, !tbaa !10
  %58 = getelementptr inbounds nuw %struct.store_engine, ptr %57, i32 0, i32 2
  store ptr %56, ptr %58, align 8, !tbaa !109
  %59 = load ptr, ptr %7, align 8, !tbaa !10
  %60 = getelementptr inbounds nuw %struct.store_engine, ptr %59, i32 0, i32 3
  %61 = load ptr, ptr %60, align 8, !tbaa !112
  %62 = load ptr, ptr %5, align 8, !tbaa !108
  %63 = getelementptr inbounds nuw %struct._obj_io, ptr %62, i32 0, i32 1
  store ptr %61, ptr %63, align 8, !tbaa !113
  %64 = load ptr, ptr %5, align 8, !tbaa !108
  %65 = load ptr, ptr %7, align 8, !tbaa !10
  %66 = getelementptr inbounds nuw %struct.store_engine, ptr %65, i32 0, i32 3
  store ptr %64, ptr %66, align 8, !tbaa !112
  %67 = load ptr, ptr %7, align 8, !tbaa !10
  %68 = getelementptr inbounds nuw %struct.store_engine, ptr %67, i32 0, i32 0
  %69 = call i32 @pthread_mutex_unlock(ptr noundef %68) #8
  %70 = load ptr, ptr %8, align 8, !tbaa !40
  %71 = getelementptr inbounds nuw %struct._store_page, ptr %70, i32 0, i32 0
  %72 = call i32 @pthread_mutex_unlock(ptr noundef %71) #8
  call void @llvm.lifetime.end.p0(i64 8, ptr %9) #8
  call void @llvm.lifetime.end.p0(i64 8, ptr %8) #8
  call void @llvm.lifetime.end.p0(i64 8, ptr %7) #8
  ret void
}