; Function Attrs: nounwind uwtable
define internal void @_wbuf_cb(ptr noundef %0, ptr noundef initializes((8, 16)) %1, i32 %2) #0 {
  %4 = getelementptr inbounds nuw i8, ptr %0, i64 40
  %5 = load ptr, ptr %4, align 8, !tbaa !33
  %6 = getelementptr inbounds nuw i8, ptr %1, i64 48
  %7 = load i16, ptr %6, align 8, !tbaa !117
  %8 = zext i16 %7 to i64
  %9 = getelementptr inbounds nuw %struct._store_page, ptr %5, i64 %8
  %10 = load ptr, ptr %1, align 8, !tbaa !138
  %11 = getelementptr inbounds nuw i8, ptr %10, i64 37
  store i8 1, ptr %11, align 1, !tbaa !140
  %12 = tail call i32 @pthread_mutex_lock(ptr noundef %9) #13
  %13 = getelementptr inbounds nuw i8, ptr %10, i64 28
  %14 = load i32, ptr %13, align 4, !tbaa !101
  %15 = getelementptr inbounds nuw i8, ptr %9, i64 76
  %16 = load i32, ptr %15, align 4, !tbaa !64
  %17 = add i32 %16, %14
  store i32 %17, ptr %15, align 4, !tbaa !64
  %18 = getelementptr inbounds nuw i8, ptr %9, i64 104
  store ptr null, ptr %18, align 8, !tbaa !121
  %19 = zext i32 %17 to i64
  %20 = getelementptr inbounds nuw i8, ptr %0, i64 96
  %21 = load i64, ptr %20, align 8, !tbaa !23
  %22 = icmp eq i64 %21, %19
  br i1 %22, label %23, label %25

23:                                               ; preds = %3
  %24 = getelementptr inbounds nuw i8, ptr %9, i64 94
  store i8 0, ptr %24, align 2, !tbaa !45
  br label %25

25:                                               ; preds = %23, %3
  %26 = tail call i32 @pthread_mutex_lock(ptr noundef nonnull %0) #13
  %27 = getelementptr inbounds nuw i8, ptr %0, i64 48
  %28 = load ptr, ptr %27, align 8, !tbaa !95
  store ptr %28, ptr %10, align 8, !tbaa !102
  store ptr %10, ptr %27, align 8, !tbaa !95
  %29 = getelementptr inbounds nuw i8, ptr %0, i64 56
  %30 = load ptr, ptr %29, align 8, !tbaa !96
  %31 = getelementptr inbounds nuw i8, ptr %1, i64 8
  store ptr %30, ptr %31, align 8, !tbaa !103
  store ptr %1, ptr %29, align 8, !tbaa !96
  %32 = tail call i32 @pthread_mutex_unlock(ptr noundef nonnull %0) #13
  %33 = tail call i32 @pthread_mutex_unlock(ptr noundef nonnull %9) #13
  ret void
}